target datalayout = "e-m:e-p270:32:32-p271:32:32-p272:64:64-i64:64-i128:128-f80:128-n8:16:32:64-S128"
target triple = "x86_64-pc-linux-gnu"

%struct.SDL_BlitInfo = type { ptr, ptr, i32, i32, i32, i32, ptr, ptr, i32, i32, i32, i32, ptr, ptr, ptr, ptr, ptr, ptr, i32, i32, i8, i8, i8, i8 }

; Function Attrs: nounwind uwtable
define internal void @SDL_Blit_XRGB8888_XRGB8888_Scale(ptr noundef %0) #0 {
  %2 = alloca ptr, align 8
  %3 = alloca i64, align 8
  %4 = alloca i64, align 8
  %5 = alloca i64, align 8
  %6 = alloca i64, align 8
  %7 = alloca i64, align 8
  %8 = alloca i64, align 8
  %9 = alloca ptr, align 8
  %10 = alloca ptr, align 8
  %11 = alloca i32, align 4
  store ptr %0, ptr %2, align 8
  call void @llvm.lifetime.start.p0(i64 8, ptr %3) #2
  call void @llvm.lifetime.start.p0(i64 8, ptr %4) #2
  call void @llvm.lifetime.start.p0(i64 8, ptr %5) #2
  call void @llvm.lifetime.start.p0(i64 8, ptr %6) #2
  call void @llvm.lifetime.start.p0(i64 8, ptr %7) #2
  call void @llvm.lifetime.start.p0(i64 8, ptr %8) #2
  %12 = load ptr, ptr %2, align 8
  %13 = getelementptr inbounds nuw %struct.SDL_BlitInfo, ptr %12, i32 0, i32 3
  %14 = load i32, ptr %13, align 4
  %15 = sext i32 %14 to i64
  %16 = shl i64 %15, 16
  %17 = load ptr, ptr %2, align 8
  %18 = getelementptr inbounds nuw %struct.SDL_BlitInfo, ptr %17, i32 0, i32 9
  %19 = load i32, ptr %18, align 4
  %20 = sext i32 %19 to i64
  %21 = udiv i64 %16, %20
  store i64 %21, ptr %7, align 8
  %22 = load ptr, ptr %2, align 8
  %23 = getelementptr inbounds nuw %struct.SDL_BlitInfo, ptr %22, i32 0, i32 2
  %24 = load i32, ptr %23, align 8
  %25 = sext i32 %24 to i64
  %26 = shl i64 %25, 16
  %27 = load ptr, ptr %2, align 8
  %28 = getelementptr inbounds nuw %struct.SDL_BlitInfo, ptr %27, i32 0, i32 8
  %29 = load i32, ptr %28, align 8
  %30 = sext i32 %29 to i64
  %31 = udiv i64 %26, %30
  store i64 %31, ptr %8, align 8
  %32 = load i64, ptr %7, align 8
  %33 = udiv i64 %32, 2
  store i64 %33, ptr %5, align 8
  br label %34

34:                                               ; preds = %79, %1
  %35 = load ptr, ptr %2, align 8
  %36 = getelementptr inbounds nuw %struct.SDL_BlitInfo, ptr %35, i32 0, i32 9
  %37 = load i32, ptr %36, align 4
  %38 = add nsw i32 %37, -1
  store i32 %38, ptr %36, align 4
  %39 = icmp ne i32 %37, 0
  br i1 %39, label %40, label %91

40:                                               ; preds = %34
  call void @llvm.lifetime.start.p0(i64 8, ptr %9) #2
  store ptr null, ptr %9, align 8
  call void @llvm.lifetime.start.p0(i64 8, ptr %10) #2
  %41 = load ptr, ptr %2, align 8
  %42 = getelementptr inbounds nuw %struct.SDL_BlitInfo, ptr %41, i32 0, i32 7
  %43 = load ptr, ptr %42, align 8
  store ptr %43, ptr %10, align 8
  call void @llvm.lifetime.start.p0(i64 4, ptr %11) #2
  %44 = load ptr, ptr %2, align 8
  %45 = getelementptr inbounds nuw %struct.SDL_BlitInfo, ptr %44, i32 0, i32 8
  %46 = load i32, ptr %45, align 8
  store i32 %46, ptr %11, align 4
  %47 = load i64, ptr %8, align 8
  %48 = udiv i64 %47, 2
  store i64 %48, ptr %6, align 8
  %49 = load i64, ptr %5, align 8
  %50 = lshr i64 %49, 16
  store i64 %50, ptr %3, align 8
  br label %51

51:                                               ; preds = %55, %40
  %52 = load i32, ptr %11, align 4
  %53 = add nsw i32 %52, -1
  store i32 %53, ptr %11, align 4
  %54 = icmp ne i32 %52, 0
  br i1 %54, label %55, label %79

55:                                               ; preds = %51
  %56 = load i64, ptr %6, align 8
  %57 = lshr i64 %56, 16
  store i64 %57, ptr %4, align 8
  %58 = load ptr, ptr %2, align 8
  %59 = getelementptr inbounds nuw %struct.SDL_BlitInfo, ptr %58, i32 0, i32 1
  %60 = load ptr, ptr %59, align 8
  %61 = load i64, ptr %3, align 8
  %62 = load ptr, ptr %2, align 8
  %63 = getelementptr inbounds nuw %struct.SDL_BlitInfo, ptr %62, i32 0, i32 4
  %64 = load i32, ptr %63, align 8
  %65 = sext i32 %64 to i64
  %66 = mul i64 %61, %65
  %67 = getelementptr inbounds nuw i8, ptr %60, i64 %66
  %68 = load i64, ptr %4, align 8
  %69 = mul i64 %68, 4
  %70 = getelementptr inbounds nuw i8, ptr %67, i64 %69
  store ptr %70, ptr %9, align 8
  %71 = load ptr, ptr %9, align 8
  %72 = load i32, ptr %71, align 4
  %73 = load ptr, ptr %10, align 8
  store i32 %72, ptr %73, align 4
  %74 = load i64, ptr %8, align 8
  %75 = load i64, ptr %6, align 8
  %76 = add i64 %75, %74
  store i64 %76, ptr %6, align 8
  %77 = load ptr, ptr %10, align 8
  %78 = getelementptr inbounds nuw i32, ptr %77, i32 1
  store ptr %78, ptr %10, align 8
  br label %51, !llvm.loop !3

79:                                               ; preds = %51
  %80 = load i64, ptr %7, align 8
  %81 = load i64, ptr %5, align 8
  %82 = add i64 %81, %80
  store i64 %82, ptr %5, align 8
  %83 = load ptr, ptr %2, align 8
  %84 = getelementptr inbounds nuw %struct.SDL_BlitInfo, ptr %83, i32 0, i32 10
  %85 = load i32, ptr %84, align 8
  %86 = load ptr, ptr %2, align 8
  %87 = getelementptr inbounds nuw %struct.SDL_BlitInfo, ptr %86, i32 0, i32 7
  %88 = load ptr, ptr %87, align 8
  %89 = sext i32 %85 to i64
  %90 = getelementptr inbounds i8, ptr %88, i64 %89
  store ptr %90, ptr %87, align 8
  call void @llvm.lifetime.end.p0(i64 4, ptr %11) #2
  call void @llvm.lifetime.end.p0(i64 8, ptr %10) #2
  call void @llvm.lifetime.end.p0(i64 8, ptr %9) #2
  br label %34, !llvm.loop !5

91:                                               ; preds = %34
  call void @llvm.lifetime.end.p0(i64 8, ptr %8) #2
  call void @llvm.lifetime.end.p0(i64 8, ptr %7) #2
  call void @llvm.lifetime.end.p0(i64 8, ptr %6) #2
  call void @llvm.lifetime.end.p0(i64 8, ptr %5) #2
  call void @llvm.lifetime.end.p0(i64 8, ptr %4) #2
  call void @llvm.lifetime.end.p0(i64 8, ptr %3) #2
  ret void
}